; Function Attrs: mustprogress uwtable
define void @_ZNK3zmq13ws_listener_t15get_socket_nameB5cxx11EiNS_12socket_end_tE(ptr noalias sret(%"class.std::__cxx11::basic_string") align 8 %agg.result, ptr noundef nonnull align 8 dereferenceable(1632) %this, i32 noundef %fd_, i32 noundef %socket_end_) unnamed_addr #0 align 2 personality ptr @__gxx_personality_v0 {
entry:
  %socket_name = alloca %"class.std::__cxx11::basic_string", align 8
  %ref.tmp = alloca %"class.std::__cxx11::basic_string", align 8
  %ref.tmp2 = alloca %"class.std::__cxx11::basic_string", align 8
  call void @_ZNSt7__cxx1112basic_stringIcSt11char_traitsIcESaIcEEC1Ev(ptr noundef nonnull align 8 dereferenceable(32) %socket_name) #14
  %_wss = getelementptr inbounds i8, ptr %this, i64 1616
  %0 = load i8, ptr %_wss, align 8
  %1 = and i8 %0, 1
  %tobool.not = icmp eq i8 %1, 0
  br i1 %tobool.not, label %if.else, label %if.then

if.then:                                          ; preds = %entry
  invoke void @_ZN3zmq15get_socket_nameINS_13wss_address_tEEENSt7__cxx1112basic_stringIcSt11char_traitsIcESaIcEEEiNS_12socket_end_tE(ptr nonnull sret(%"class.std::__cxx11::basic_string") align 8 %ref.tmp, i32 noundef %fd_, i32 noundef %socket_end_)
          to label %if.end unwind label %lpad

lpad:                                             ; preds = %invoke.cont5, %if.end, %if.else, %if.then
  %2 = landingpad { ptr, i32 }
          cleanup
  br label %lpad.body

lpad.body:                                        ; preds = %lpad.i, %lpad
  %eh.lpad-body = phi { ptr, i32 } [ %2, %lpad ], [ %3, %lpad.i ]
  call void @_ZNSt7__cxx1112basic_stringIcSt11char_traitsIcESaIcEED1Ev(ptr noundef nonnull align 8 dereferenceable(32) %socket_name) #14
  resume { ptr, i32 } %eh.lpad-body

if.else:                                          ; preds = %entry
  invoke void @_ZN3zmq15get_socket_nameINS_12ws_address_tEEENSt7__cxx1112basic_stringIcSt11char_traitsIcESaIcEEEiNS_12socket_end_tE(ptr nonnull sret(%"class.std::__cxx11::basic_string") align 8 %ref.tmp2, i32 noundef %fd_, i32 noundef %socket_end_)
          to label %if.end unwind label %lpad

if.end:                                           ; preds = %if.else, %if.then
  %ref.tmp2.sink3 = phi ptr [ %ref.tmp, %if.then ], [ %ref.tmp2, %if.else ]
  %call4 = call noundef nonnull align 8 dereferenceable(32) ptr @_ZNSt7__cxx1112basic_stringIcSt11char_traitsIcESaIcEEaSEOS4_(ptr noundef nonnull align 8 dereferenceable(32) %socket_name, ptr noundef nonnull align 8 dereferenceable(32) %ref.tmp2.sink3) #14
  call void @_ZNSt7__cxx1112basic_stringIcSt11char_traitsIcESaIcEED1Ev(ptr noundef nonnull align 8 dereferenceable(32) %ref.tmp2.sink3) #14
  %_address = getelementptr inbounds i8, ptr %this, i64 1520
  %call6 = invoke noundef ptr @_ZNK3zmq12ws_address_t4pathEv(ptr noundef nonnull align 8 dereferenceable(96) %_address)
          to label %invoke.cont5 unwind label %lpad

invoke.cont5:                                     ; preds = %if.end
  invoke void @_ZNSt7__cxx1112basic_stringIcSt11char_traitsIcESaIcEEC1ERKS4_(ptr noundef nonnull align 8 dereferenceable(32) %agg.result, ptr noundef nonnull align 8 dereferenceable(32) %socket_name)
          to label %.noexc unwind label %lpad

.noexc:                                           ; preds = %invoke.cont5
  %call.i = invoke noundef nonnull align 8 dereferenceable(32) ptr @_ZNSt7__cxx1112basic_stringIcSt11char_traitsIcESaIcEE6appendEPKc(ptr noundef nonnull align 8 dereferenceable(32) %agg.result, ptr noundef %call6)
          to label %invoke.cont7 unwind label %lpad.i

lpad.i:                                           ; preds = %.noexc
  %3 = landingpad { ptr, i32 }
          cleanup
  call void @_ZNSt7__cxx1112basic_stringIcSt11char_traitsIcESaIcEED1Ev(ptr noundef nonnull align 8 dereferenceable(32) %agg.result) #14
  br label %lpad.body

invoke.cont7:                                     ; preds = %.noexc
  call void @_ZNSt7__cxx1112basic_stringIcSt11char_traitsIcESaIcEED1Ev(ptr noundef nonnull align 8 dereferenceable(32) %socket_name) #14
  ret void
}